---
triple:          'arm64-apple-darwin'
binary-path:     linked
relocations:
  - { offsetInCU: 0x3F, offset: 0x3F, size: 0x8, addend: 0x0, symName: _new_volume, symObjAddr: 0x27798, symBinAddr: 0x100008000, symSize: 0x0 }
  - { offsetInCU: 0xC3, offset: 0xC3, size: 0x8, addend: 0x0, symName: _volume, symObjAddr: 0x7C8998, symBinAddr: 0x1007A9200, symSize: 0x0 }
  - { offsetInCU: 0x33D8, offset: 0x33D8, size: 0x8, addend: 0x0, symName: __ZNSt3__16chronomiB7v160006IxNS_5ratioILl1ELl1000000000EEExS3_EENS_11common_typeIJNS0_8durationIT_T0_EENS5_IT1_T2_EEEE4typeERKS8_RKSB_, symObjAddr: 0x28E0, symBinAddr: 0x10000382C, symSize: 0x70 }
  - { offsetInCU: 0x3445, offset: 0x3445, size: 0x8, addend: 0x0, symName: __ZNSt3__16chrono13duration_castB7v160006INS0_8durationIxNS_5ratioILl1ELl1000000EEEEExNS3_ILl1ELl1000000000EEEEENS_9enable_ifIXsr13__is_durationIT_EE5valueES8_E4typeERKNS2_IT0_T1_EE, symObjAddr: 0x64C, symBinAddr: 0x100001598, symSize: 0x30 }
  - { offsetInCU: 0x348C, offset: 0x348C, size: 0x8, addend: 0x0, symName: __ZNSt3__16chronomiB7v160006INS0_12steady_clockENS0_8durationIxNS_5ratioILl1ELl1000000000EEEEES6_EENS_11common_typeIJT0_T1_EE4typeERKNS0_10time_pointIT_S8_EERKNSC_ISD_S9_EE, symObjAddr: 0x67C, symBinAddr: 0x1000015C8, symSize: 0x58 }
  - { offsetInCU: 0x3971, offset: 0x3971, size: 0x8, addend: 0x0, symName: __ZNSt3__17advanceB7v160006INS_15__list_iteratorI5voxelPvEEiivEEvRT_T0_, symObjAddr: 0x1710, symBinAddr: 0x10000265C, symSize: 0x58 }
  - { offsetInCU: 0x3B70, offset: 0x3B70, size: 0x8, addend: 0x0, symName: __ZNSt3__124__put_character_sequenceB7v160006IcNS_11char_traitsIcEEEERNS_13basic_ostreamIT_T0_EES7_PKS4_m, symObjAddr: 0x1DE8, symBinAddr: 0x100002D34, symSize: 0x1EC }
  - { offsetInCU: 0x54AE, offset: 0x54AE, size: 0x8, addend: 0x0, symName: __ZNSt3__1lsB7v160006INS_11char_traitsIcEEEERNS_13basic_ostreamIcT_EES6_PKc, symObjAddr: 0x2E4, symBinAddr: 0x100001230, symSize: 0x48 }
  - { offsetInCU: 0x54F4, offset: 0x54F4, size: 0x8, addend: 0x0, symName: __ZNSt3__14endlB7v160006IcNS_11char_traitsIcEEEERNS_13basic_ostreamIT_T0_EES7_, symObjAddr: 0x358, symBinAddr: 0x1000012A4, symSize: 0x58 }
  - { offsetInCU: 0x6C94, offset: 0x6C94, size: 0x8, addend: 0x0, symName: __ZNSt3__119__debug_db_insert_cB7v160006INS_4listI5voxelNS_9allocatorIS2_EEEEEEvPT_, symObjAddr: 0xB1C, symBinAddr: 0x100001A68, symSize: 0x10 }
  - { offsetInCU: 0x6D16, offset: 0x6D16, size: 0x8, addend: 0x0, symName: __ZNSt3__117__libcpp_allocateB7v160006Emm, symObjAddr: 0x11A0, symBinAddr: 0x1000020EC, symSize: 0x28 }
  - { offsetInCU: 0x6D53, offset: 0x6D53, size: 0x8, addend: 0x0, symName: __ZNSt3__121__libcpp_operator_newB7v160006IJmEEEPvDpT_, symObjAddr: 0x11E0, symBinAddr: 0x10000212C, symSize: 0x24 }
  - { offsetInCU: 0x6D8C, offset: 0x6D8C, size: 0x8, addend: 0x0, symName: __ZNSt3__119__libcpp_deallocateB7v160006EPvmm, symObjAddr: 0x1668, symBinAddr: 0x1000025B4, symSize: 0x30 }
  - { offsetInCU: 0x6DD4, offset: 0x6DD4, size: 0x8, addend: 0x0, symName: __ZNSt3__127__do_deallocate_handle_sizeB7v160006IJEEEvPvmDpT_, symObjAddr: 0x1698, symBinAddr: 0x1000025E4, symSize: 0x28 }
  - { offsetInCU: 0x6E12, offset: 0x6E12, size: 0x8, addend: 0x0, symName: __ZNSt3__124__libcpp_operator_deleteB7v160006IJPvEEEvDpT_, symObjAddr: 0x16C0, symBinAddr: 0x10000260C, symSize: 0x24 }
  - { offsetInCU: 0x6E47, offset: 0x6E47, size: 0x8, addend: 0x0, symName: __ZNSt3__121__convert_to_integralB7v160006Ei, symObjAddr: 0x186C, symBinAddr: 0x1000027B8, symSize: 0x14 }
  - { offsetInCU: 0x6E73, offset: 0x6E73, size: 0x8, addend: 0x0, symName: __ZNSt3__19__advanceB7v160006INS_15__list_iteratorI5voxelPvEEEEvRT_NS_15iterator_traitsIS5_E15difference_typeENS_26bidirectional_iterator_tagE, symObjAddr: 0x1880, symBinAddr: 0x1000027CC, symSize: 0xA4 }
  - { offsetInCU: 0x6EBC, offset: 0x6EBC, size: 0x8, addend: 0x0, symName: __ZNSt3__1neB7v160006ERKNS_21__list_const_iteratorI5voxelPvEES5_, symObjAddr: 0x1A7C, symBinAddr: 0x1000029C8, symSize: 0x34 }
  - { offsetInCU: 0x6EF9, offset: 0x6EF9, size: 0x8, addend: 0x0, symName: __ZNSt3__1eqB7v160006ERKNS_21__list_const_iteratorI5voxelPvEES5_, symObjAddr: 0x1B44, symBinAddr: 0x100002A90, symSize: 0x30 }
  - { offsetInCU: 0x6F36, offset: 0x6F36, size: 0x8, addend: 0x0, symName: __ZNSt3__118__debug_db_erase_cB7v160006INS_10__list_impI5voxelNS_9allocatorIS2_EEEEEEvPT_, symObjAddr: 0x1D34, symBinAddr: 0x100002C80, symSize: 0x10 }
  - { offsetInCU: 0x6F67, offset: 0x6F67, size: 0x8, addend: 0x0, symName: __ZNSt3__125__debug_db_invalidate_allB7v160006INS_10__list_impI5voxelNS_9allocatorIS2_EEEEEEvPT_, symObjAddr: 0x1D78, symBinAddr: 0x100002CC4, symSize: 0x10 }
  - { offsetInCU: 0x6F98, offset: 0x6F98, size: 0x8, addend: 0x0, symName: __ZNSt3__116__pad_and_outputB7v160006IcNS_11char_traitsIcEEEENS_19ostreambuf_iteratorIT_T0_EES6_PKS4_S8_S8_RNS_8ios_baseES4_, symObjAddr: 0x2024, symBinAddr: 0x100002F70, symSize: 0x240 }
  - { offsetInCU: 0x7067, offset: 0x7067, size: 0x8, addend: 0x0, symName: __ZNSt3__119__debug_db_insert_cB7v160006INS_12basic_stringIcNS_11char_traitsIcEENS_9allocatorIcEEEEEEvPT_, symObjAddr: 0x24D8, symBinAddr: 0x100003424, symSize: 0x10 }
  - { offsetInCU: 0x7098, offset: 0x7098, size: 0x8, addend: 0x0, symName: __ZNSt3__112__to_addressB7v160006IKcEEPT_S3_, symObjAddr: 0x25A4, symBinAddr: 0x1000034F0, symSize: 0x14 }
  - { offsetInCU: 0x7100, offset: 0x7100, size: 0x8, addend: 0x0, symName: __ZNSt3__19use_facetB7v160006INS_5ctypeIcEEEERKT_RKNS_6localeE, symObjAddr: 0x2824, symBinAddr: 0x100003770, symSize: 0x2C }
  - { offsetInCU: 0x75CF, offset: 0x75CF, size: 0x8, addend: 0x0, symName: __ZNSt3__118__constexpr_strlenB7v160006EPKc, symObjAddr: 0x28BC, symBinAddr: 0x100003808, symSize: 0x24 }
  - { offsetInCU: 0x76E0, offset: 0x76E0, size: 0x8, addend: 0x0, symName: __ZSt28__throw_bad_array_new_lengthB7v160006v, symObjAddr: 0x116C, symBinAddr: 0x1000020B8, symSize: 0x34 }
  - { offsetInCU: 0x7A0E, offset: 0x7A0E, size: 0x8, addend: 0x0, symName: __ZNKSt3__16chrono15__duration_castINS0_8durationIxNS_5ratioILl1ELl1000000000EEEEENS2_IxNS3_ILl1ELl1000000EEEEENS3_ILl1ELl1000EEELb1ELb0EEclB7v160006ERKS5_, symObjAddr: 0x974, symBinAddr: 0x1000018C0, symSize: 0x48 }
  - { offsetInCU: 0x9D43, offset: 0x9D43, size: 0x8, addend: 0x0, symName: __ZN5voxelC1Ev, symObjAddr: 0x0, symBinAddr: 0x100000F4C, symSize: 0x2C }
  - { offsetInCU: 0x9D6B, offset: 0x9D6B, size: 0x8, addend: 0x0, symName: __Z10array_copyP5voxelS0_, symObjAddr: 0x2C, symBinAddr: 0x100000F78, symSize: 0x74 }
  - { offsetInCU: 0x9DBE, offset: 0x9DBE, size: 0x8, addend: 0x0, symName: __Z16initialize_arrayP5voxel, symObjAddr: 0xA0, symBinAddr: 0x100000FEC, symSize: 0x70 }
  - { offsetInCU: 0x9E03, offset: 0x9E03, size: 0x8, addend: 0x0, symName: __Z10move_rightv, symObjAddr: 0x110, symBinAddr: 0x10000105C, symSize: 0x1D4 }
  - { offsetInCU: 0x9EFE, offset: 0x9EFE, size: 0x8, addend: 0x0, symName: __ZNSt3__113basic_ostreamIcNS_11char_traitsIcEEElsB7v160006EPFRS3_S4_E, symObjAddr: 0x32C, symBinAddr: 0x100001278, symSize: 0x2C }
  - { offsetInCU: 0x9F31, offset: 0x9F31, size: 0x8, addend: 0x0, symName: _main, symObjAddr: 0x3B0, symBinAddr: 0x1000012FC, symSize: 0x29C }
  - { offsetInCU: 0x9FB2, offset: 0x9FB2, size: 0x8, addend: 0x0, symName: __ZNKSt3__16chrono8durationIxNS_5ratioILl1ELl1000000EEEE5countB7v160006Ev, symObjAddr: 0x6D4, symBinAddr: 0x100001620, symSize: 0x18 }
  - { offsetInCU: 0xA25F, offset: 0xA25F, size: 0x8, addend: 0x0, symName: __ZN3MapC1Ev, symObjAddr: 0x6EC, symBinAddr: 0x100001638, symSize: 0x2C }
  - { offsetInCU: 0xA289, offset: 0xA289, size: 0x8, addend: 0x0, symName: __ZN3Map11createNRowsEi, symObjAddr: 0x718, symBinAddr: 0x100001664, symSize: 0x74 }
  - { offsetInCU: 0xA2D8, offset: 0xA2D8, size: 0x8, addend: 0x0, symName: __ZN3Map10shiftSouthEv, symObjAddr: 0x78C, symBinAddr: 0x1000016D8, symSize: 0x198 }
  - { offsetInCU: 0xA335, offset: 0xA335, size: 0x8, addend: 0x0, symName: __ZN3MapD1Ev, symObjAddr: 0x924, symBinAddr: 0x100001870, symSize: 0x2C }
  - { offsetInCU: 0xA360, offset: 0xA360, size: 0x8, addend: 0x0, symName: __ZN5voxelC2Ev, symObjAddr: 0x950, symBinAddr: 0x10000189C, symSize: 0x24 }
  - { offsetInCU: 0xA389, offset: 0xA389, size: 0x8, addend: 0x0, symName: __ZNKSt3__16chrono8durationIxNS_5ratioILl1ELl1000000000EEEE5countB7v160006Ev, symObjAddr: 0x9BC, symBinAddr: 0x100001908, symSize: 0x18 }
  - { offsetInCU: 0xA3BD, offset: 0xA3BD, size: 0x8, addend: 0x0, symName: __ZNSt3__16chrono8durationIxNS_5ratioILl1ELl1000000EEEEC1B7v160006IxEERKT_PNS_9enable_ifIXaasr14is_convertibleIS8_xEE5valueooL_ZNS_17integral_constantIbLb0EE5valueEEntsr23treat_as_floating_pointIS6_EE5valueEvE4typeE, symObjAddr: 0x9D4, symBinAddr: 0x100001920, symSize: 0x3C }
  - { offsetInCU: 0xA409, offset: 0xA409, size: 0x8, addend: 0x0, symName: __ZNSt3__16chrono8durationIxNS_5ratioILl1ELl1000000EEEEC2B7v160006IxEERKT_PNS_9enable_ifIXaasr14is_convertibleIS8_xEE5valueooL_ZNS_17integral_constantIbLb0EE5valueEEntsr23treat_as_floating_pointIS6_EE5valueEvE4typeE, symObjAddr: 0xA10, symBinAddr: 0x10000195C, symSize: 0x28 }
  - { offsetInCU: 0xA455, offset: 0xA455, size: 0x8, addend: 0x0, symName: __ZN3MapC2Ev, symObjAddr: 0xA38, symBinAddr: 0x100001984, symSize: 0x2C }
  - { offsetInCU: 0xA480, offset: 0xA480, size: 0x8, addend: 0x0, symName: __ZNSt3__14listI5voxelNS_9allocatorIS1_EEEC1B7v160006Ev, symObjAddr: 0xA64, symBinAddr: 0x1000019B0, symSize: 0x2C }
  - { offsetInCU: 0xA4A9, offset: 0xA4A9, size: 0x8, addend: 0x0, symName: __ZNSt3__14listI5voxelNS_9allocatorIS1_EEEC2B7v160006Ev, symObjAddr: 0xA90, symBinAddr: 0x1000019DC, symSize: 0x3C }
  - { offsetInCU: 0xA4D2, offset: 0xA4D2, size: 0x8, addend: 0x0, symName: __ZNSt3__110__list_impI5voxelNS_9allocatorIS1_EEEC2Ev, symObjAddr: 0xACC, symBinAddr: 0x100001A18, symSize: 0x50 }
  - { offsetInCU: 0xA4FD, offset: 0xA4FD, size: 0x8, addend: 0x0, symName: __ZNSt3__116__list_node_baseI5voxelPvEC1B7v160006Ev, symObjAddr: 0xB38, symBinAddr: 0x100001A84, symSize: 0x2C }
  - { offsetInCU: 0xA530, offset: 0xA530, size: 0x8, addend: 0x0, symName: __ZNSt3__117__compressed_pairImNS_9allocatorINS_11__list_nodeI5voxelPvEEEEEC1B7v160006IiNS_18__default_init_tagEEEOT_OT0_, symObjAddr: 0xB64, symBinAddr: 0x100001AB0, symSize: 0x3C }
  - { offsetInCU: 0xA587, offset: 0xA587, size: 0x8, addend: 0x0, symName: __ZNSt3__116__list_node_baseI5voxelPvEC2B7v160006Ev, symObjAddr: 0xBA0, symBinAddr: 0x100001AEC, symSize: 0x4C }
  - { offsetInCU: 0xA5B0, offset: 0xA5B0, size: 0x8, addend: 0x0, symName: __ZNSt3__126__list_node_pointer_traitsI5voxelPvE26__unsafe_link_pointer_castB7v160006EPNS_16__list_node_baseIS1_S2_EE, symObjAddr: 0xBEC, symBinAddr: 0x100001B38, symSize: 0x14 }
  - { offsetInCU: 0xA5D3, offset: 0xA5D3, size: 0x8, addend: 0x0, symName: __ZNSt3__116__list_node_baseI5voxelPvE6__selfB7v160006Ev, symObjAddr: 0xC00, symBinAddr: 0x100001B4C, symSize: 0x24 }
  - { offsetInCU: 0xA5FD, offset: 0xA5FD, size: 0x8, addend: 0x0, symName: __ZNSt3__114pointer_traitsIPNS_16__list_node_baseI5voxelPvEEE10pointer_toB7v160006ERS4_, symObjAddr: 0xC24, symBinAddr: 0x100001B70, symSize: 0x14 }
  - { offsetInCU: 0xA620, offset: 0xA620, size: 0x8, addend: 0x0, symName: __ZNSt3__117__compressed_pairImNS_9allocatorINS_11__list_nodeI5voxelPvEEEEEC2B7v160006IiNS_18__default_init_tagEEEOT_OT0_, symObjAddr: 0xC38, symBinAddr: 0x100001B84, symSize: 0x40 }
  - { offsetInCU: 0xA677, offset: 0xA677, size: 0x8, addend: 0x0, symName: __ZNSt3__122__compressed_pair_elemImLi0ELb0EEC2B7v160006IivEEOT_, symObjAddr: 0xC78, symBinAddr: 0x100001BC4, symSize: 0x24 }
  - { offsetInCU: 0xA6B8, offset: 0xA6B8, size: 0x8, addend: 0x0, symName: __ZNSt3__122__compressed_pair_elemINS_9allocatorINS_11__list_nodeI5voxelPvEEEELi1ELb1EEC2B7v160006ENS_18__default_init_tagE, symObjAddr: 0xC9C, symBinAddr: 0x100001BE8, symSize: 0x2C }
  - { offsetInCU: 0xA6EB, offset: 0xA6EB, size: 0x8, addend: 0x0, symName: __ZNSt3__19allocatorINS_11__list_nodeI5voxelPvEEEC2B7v160006Ev, symObjAddr: 0xCC8, symBinAddr: 0x100001C14, symSize: 0x2C }
  - { offsetInCU: 0xA714, offset: 0xA714, size: 0x8, addend: 0x0, symName: __ZNSt3__116__non_trivial_ifILb1ENS_9allocatorINS_11__list_nodeI5voxelPvEEEEEC2B7v160006Ev, symObjAddr: 0xCF4, symBinAddr: 0x100001C40, symSize: 0x14 }
  - { offsetInCU: 0xA742, offset: 0xA742, size: 0x8, addend: 0x0, symName: __ZNSt3__14listI5voxelNS_9allocatorIS1_EEE12emplace_backIJibEEEvDpOT_, symObjAddr: 0xD08, symBinAddr: 0x100001C54, symSize: 0xF0 }
  - { offsetInCU: 0xA7C3, offset: 0xA7C3, size: 0x8, addend: 0x0, symName: __ZNSt3__110__list_impI5voxelNS_9allocatorIS1_EEE12__node_allocB7v160006Ev, symObjAddr: 0xDF8, symBinAddr: 0x100001D44, symSize: 0x28 }
  - { offsetInCU: 0xA7E7, offset: 0xA7E7, size: 0x8, addend: 0x0, symName: __ZNSt3__14listI5voxelNS_9allocatorIS1_EEE15__allocate_nodeB7v160006ERNS2_INS_11__list_nodeIS1_PvEEEE, symObjAddr: 0xE20, symBinAddr: 0x100001D6C, symSize: 0x70 }
  - { offsetInCU: 0xA82A, offset: 0xA82A, size: 0x8, addend: 0x0, symName: __ZNSt3__116allocator_traitsINS_9allocatorINS_11__list_nodeI5voxelPvEEEEE9constructB7v160006IS3_JibEvEEvRS6_PT_DpOT0_, symObjAddr: 0xE90, symBinAddr: 0x100001DDC, symSize: 0x3C }
  - { offsetInCU: 0xA894, offset: 0xA894, size: 0x8, addend: 0x0, symName: __ZNKSt3__110unique_ptrINS_11__list_nodeI5voxelPvEENS_22__allocator_destructorINS_9allocatorIS4_EEEEEptB7v160006Ev, symObjAddr: 0xECC, symBinAddr: 0x100001E18, symSize: 0x28 }
  - { offsetInCU: 0xA8B8, offset: 0xA8B8, size: 0x8, addend: 0x0, symName: __ZNSt3__111__list_nodeI5voxelPvE9__as_linkB7v160006Ev, symObjAddr: 0xEF4, symBinAddr: 0x100001E40, symSize: 0x24 }
  - { offsetInCU: 0xA8DD, offset: 0xA8DD, size: 0x8, addend: 0x0, symName: __ZNSt3__14listI5voxelNS_9allocatorIS1_EEE20__link_nodes_at_backEPNS_16__list_node_baseIS1_PvEES8_, symObjAddr: 0xF18, symBinAddr: 0x100001E64, symSize: 0x60 }
  - { offsetInCU: 0xA921, offset: 0xA921, size: 0x8, addend: 0x0, symName: __ZNSt3__110__list_impI5voxelNS_9allocatorIS1_EEE4__szB7v160006Ev, symObjAddr: 0xF78, symBinAddr: 0x100001EC4, symSize: 0x28 }
  - { offsetInCU: 0xA945, offset: 0xA945, size: 0x8, addend: 0x0, symName: __ZNSt3__110unique_ptrINS_11__list_nodeI5voxelPvEENS_22__allocator_destructorINS_9allocatorIS4_EEEEE7releaseB7v160006Ev, symObjAddr: 0xFA0, symBinAddr: 0x100001EEC, symSize: 0x44 }
  - { offsetInCU: 0xA979, offset: 0xA979, size: 0x8, addend: 0x0, symName: __ZNSt3__110unique_ptrINS_11__list_nodeI5voxelPvEENS_22__allocator_destructorINS_9allocatorIS4_EEEEED1B7v160006Ev, symObjAddr: 0xFE4, symBinAddr: 0x100001F30, symSize: 0x2C }
  - { offsetInCU: 0xA9A1, offset: 0xA9A1, size: 0x8, addend: 0x0, symName: __ZNSt3__117__compressed_pairImNS_9allocatorINS_11__list_nodeI5voxelPvEEEEE6secondB7v160006Ev, symObjAddr: 0x1010, symBinAddr: 0x100001F5C, symSize: 0x24 }
  - { offsetInCU: 0xA9C6, offset: 0xA9C6, size: 0x8, addend: 0x0, symName: __ZNSt3__122__compressed_pair_elemINS_9allocatorINS_11__list_nodeI5voxelPvEEEELi1ELb1EE5__getB7v160006Ev, symObjAddr: 0x1034, symBinAddr: 0x100001F80, symSize: 0x14 }
  - { offsetInCU: 0xA9EB, offset: 0xA9EB, size: 0x8, addend: 0x0, symName: __ZNSt3__116allocator_traitsINS_9allocatorINS_11__list_nodeI5voxelPvEEEEE8allocateB7v160006ERS6_m, symObjAddr: 0x1048, symBinAddr: 0x100001F94, symSize: 0x2C }
  - { offsetInCU: 0xAA1E, offset: 0xAA1E, size: 0x8, addend: 0x0, symName: __ZNSt3__122__allocator_destructorINS_9allocatorINS_11__list_nodeI5voxelPvEEEEEC1B7v160006ERS6_m, symObjAddr: 0x1074, symBinAddr: 0x100001FC0, symSize: 0x3C }
  - { offsetInCU: 0xAA68, offset: 0xAA68, size: 0x8, addend: 0x0, symName: __ZNSt3__110unique_ptrINS_11__list_nodeI5voxelPvEENS_22__allocator_destructorINS_9allocatorIS4_EEEEEC1B7v160006ILb1EvEEPS4_NS_16__dependent_typeINS_27__unique_ptr_deleter_sfinaeIS8_EEXT_EE20__good_rval_ref_typeE, symObjAddr: 0x10B0, symBinAddr: 0x100001FFC, symSize: 0x3C }
  - { offsetInCU: 0xAAB7, offset: 0xAAB7, size: 0x8, addend: 0x0, symName: __ZNSt3__19allocatorINS_11__list_nodeI5voxelPvEEE8allocateB7v160006Em, symObjAddr: 0x10EC, symBinAddr: 0x100002038, symSize: 0x5C }
  - { offsetInCU: 0xAAF4, offset: 0xAAF4, size: 0x8, addend: 0x0, symName: __ZNSt3__116allocator_traitsINS_9allocatorINS_11__list_nodeI5voxelPvEEEEE8max_sizeB7v160006IS6_vEEmRKS6_, symObjAddr: 0x1148, symBinAddr: 0x100002094, symSize: 0x24 }
  - { offsetInCU: 0xAB22, offset: 0xAB22, size: 0x8, addend: 0x0, symName: __ZNKSt3__19allocatorINS_11__list_nodeI5voxelPvEEE8max_sizeB7v160006Ev, symObjAddr: 0x11C8, symBinAddr: 0x100002114, symSize: 0x18 }
  - { offsetInCU: 0xAB47, offset: 0xAB47, size: 0x8, addend: 0x0, symName: __ZNSt3__122__allocator_destructorINS_9allocatorINS_11__list_nodeI5voxelPvEEEEEC2B7v160006ERS6_m, symObjAddr: 0x1204, symBinAddr: 0x100002150, symSize: 0x2C }
  - { offsetInCU: 0xAB8C, offset: 0xAB8C, size: 0x8, addend: 0x0, symName: __ZNSt3__110unique_ptrINS_11__list_nodeI5voxelPvEENS_22__allocator_destructorINS_9allocatorIS4_EEEEEC2B7v160006ILb1EvEEPS4_NS_16__dependent_typeINS_27__unique_ptr_deleter_sfinaeIS8_EEXT_EE20__good_rval_ref_typeE, symObjAddr: 0x1230, symBinAddr: 0x10000217C, symSize: 0x48 }
  - { offsetInCU: 0xABDC, offset: 0xABDC, size: 0x8, addend: 0x0, symName: __ZNSt3__117__compressed_pairIPNS_11__list_nodeI5voxelPvEENS_22__allocator_destructorINS_9allocatorIS4_EEEEEC1B7v160006IRS5_S9_EEOT_OT0_, symObjAddr: 0x1278, symBinAddr: 0x1000021C4, symSize: 0x3C }
  - { offsetInCU: 0xAC33, offset: 0xAC33, size: 0x8, addend: 0x0, symName: __ZNSt3__117__compressed_pairIPNS_11__list_nodeI5voxelPvEENS_22__allocator_destructorINS_9allocatorIS4_EEEEEC2B7v160006IRS5_S9_EEOT_OT0_, symObjAddr: 0x12B4, symBinAddr: 0x100002200, symSize: 0x48 }
  - { offsetInCU: 0xAC8A, offset: 0xAC8A, size: 0x8, addend: 0x0, symName: __ZNSt3__122__compressed_pair_elemIPNS_11__list_nodeI5voxelPvEELi0ELb0EEC2B7v160006IRS5_vEEOT_, symObjAddr: 0x12FC, symBinAddr: 0x100002248, symSize: 0x24 }
  - { offsetInCU: 0xACCB, offset: 0xACCB, size: 0x8, addend: 0x0, symName: __ZNSt3__122__compressed_pair_elemINS_22__allocator_destructorINS_9allocatorINS_11__list_nodeI5voxelPvEEEEEELi1ELb0EEC2B7v160006IS8_vEEOT_, symObjAddr: 0x1320, symBinAddr: 0x10000226C, symSize: 0x24 }
  - { offsetInCU: 0xAD0B, offset: 0xAD0B, size: 0x8, addend: 0x0, symName: __ZNSt3__19allocatorINS_11__list_nodeI5voxelPvEEE9constructB7v160006IS2_JibEEEvPT_DpOT0_, symObjAddr: 0x1344, symBinAddr: 0x100002290, symSize: 0x44 }
  - { offsetInCU: 0xAD73, offset: 0xAD73, size: 0x8, addend: 0x0, symName: __ZN5voxelC1Eib, symObjAddr: 0x1388, symBinAddr: 0x1000022D4, symSize: 0x48 }
  - { offsetInCU: 0xADB8, offset: 0xADB8, size: 0x8, addend: 0x0, symName: __ZN5voxelC2Eib, symObjAddr: 0x13D0, symBinAddr: 0x10000231C, symSize: 0x38 }
  - { offsetInCU: 0xADFC, offset: 0xADFC, size: 0x8, addend: 0x0, symName: __ZNKSt3__117__compressed_pairIPNS_11__list_nodeI5voxelPvEENS_22__allocator_destructorINS_9allocatorIS4_EEEEE5firstB7v160006Ev, symObjAddr: 0x1408, symBinAddr: 0x100002354, symSize: 0x24 }
  - { offsetInCU: 0xAE21, offset: 0xAE21, size: 0x8, addend: 0x0, symName: __ZNKSt3__122__compressed_pair_elemIPNS_11__list_nodeI5voxelPvEELi0ELb0EE5__getB7v160006Ev, symObjAddr: 0x142C, symBinAddr: 0x100002378, symSize: 0x14 }
  - { offsetInCU: 0xAE45, offset: 0xAE45, size: 0x8, addend: 0x0, symName: __ZNKSt3__110__list_impI5voxelNS_9allocatorIS1_EEE13__end_as_linkB7v160006Ev, symObjAddr: 0x1440, symBinAddr: 0x10000238C, symSize: 0x28 }
  - { offsetInCU: 0xAE69, offset: 0xAE69, size: 0x8, addend: 0x0, symName: __ZNSt3__117__compressed_pairImNS_9allocatorINS_11__list_nodeI5voxelPvEEEEE5firstB7v160006Ev, symObjAddr: 0x1468, symBinAddr: 0x1000023B4, symSize: 0x24 }
  - { offsetInCU: 0xAE8E, offset: 0xAE8E, size: 0x8, addend: 0x0, symName: __ZNSt3__122__compressed_pair_elemImLi0ELb0EE5__getB7v160006Ev, symObjAddr: 0x148C, symBinAddr: 0x1000023D8, symSize: 0x14 }
  - { offsetInCU: 0xAEB2, offset: 0xAEB2, size: 0x8, addend: 0x0, symName: __ZNSt3__117__compressed_pairIPNS_11__list_nodeI5voxelPvEENS_22__allocator_destructorINS_9allocatorIS4_EEEEE5firstB7v160006Ev, symObjAddr: 0x14A0, symBinAddr: 0x1000023EC, symSize: 0x24 }
  - { offsetInCU: 0xAED7, offset: 0xAED7, size: 0x8, addend: 0x0, symName: __ZNSt3__122__compressed_pair_elemIPNS_11__list_nodeI5voxelPvEELi0ELb0EE5__getB7v160006Ev, symObjAddr: 0x14C4, symBinAddr: 0x100002410, symSize: 0x14 }
  - { offsetInCU: 0xAEFC, offset: 0xAEFC, size: 0x8, addend: 0x0, symName: __ZNSt3__110unique_ptrINS_11__list_nodeI5voxelPvEENS_22__allocator_destructorINS_9allocatorIS4_EEEEED2B7v160006Ev, symObjAddr: 0x14D8, symBinAddr: 0x100002424, symSize: 0x30 }
  - { offsetInCU: 0xAF24, offset: 0xAF24, size: 0x8, addend: 0x0, symName: __ZNSt3__110unique_ptrINS_11__list_nodeI5voxelPvEENS_22__allocator_destructorINS_9allocatorIS4_EEEEE5resetB7v160006EPS4_, symObjAddr: 0x1508, symBinAddr: 0x100002454, symSize: 0x78 }
  - { offsetInCU: 0xAF66, offset: 0xAF66, size: 0x8, addend: 0x0, symName: __ZNSt3__117__compressed_pairIPNS_11__list_nodeI5voxelPvEENS_22__allocator_destructorINS_9allocatorIS4_EEEEE6secondB7v160006Ev, symObjAddr: 0x1580, symBinAddr: 0x1000024CC, symSize: 0x28 }
  - { offsetInCU: 0xAF8A, offset: 0xAF8A, size: 0x8, addend: 0x0, symName: __ZNSt3__122__allocator_destructorINS_9allocatorINS_11__list_nodeI5voxelPvEEEEEclB7v160006EPS5_, symObjAddr: 0x15A8, symBinAddr: 0x1000024F4, symSize: 0x34 }
  - { offsetInCU: 0xAFBD, offset: 0xAFBD, size: 0x8, addend: 0x0, symName: __ZNSt3__122__compressed_pair_elemINS_22__allocator_destructorINS_9allocatorINS_11__list_nodeI5voxelPvEEEEEELi1ELb0EE5__getB7v160006Ev, symObjAddr: 0x15DC, symBinAddr: 0x100002528, symSize: 0x14 }
  - { offsetInCU: 0xAFE2, offset: 0xAFE2, size: 0x8, addend: 0x0, symName: __ZNSt3__116allocator_traitsINS_9allocatorINS_11__list_nodeI5voxelPvEEEEE10deallocateB7v160006ERS6_PS5_m, symObjAddr: 0x15F0, symBinAddr: 0x10000253C, symSize: 0x34 }
  - { offsetInCU: 0xB023, offset: 0xB023, size: 0x8, addend: 0x0, symName: __ZNSt3__19allocatorINS_11__list_nodeI5voxelPvEEE10deallocateB7v160006EPS4_m, symObjAddr: 0x1624, symBinAddr: 0x100002570, symSize: 0x44 }
  - { offsetInCU: 0xB063, offset: 0xB063, size: 0x8, addend: 0x0, symName: __ZNSt3__14listI5voxelNS_9allocatorIS1_EEE5beginB7v160006Ev, symObjAddr: 0x16E4, symBinAddr: 0x100002630, symSize: 0x2C }
  - { offsetInCU: 0xB087, offset: 0xB087, size: 0x8, addend: 0x0, symName: __ZN3Map9deleteRowENSt3__115__list_iteratorI5voxelPvEE, symObjAddr: 0x1768, symBinAddr: 0x1000026B4, symSize: 0x74 }
  - { offsetInCU: 0xB0C7, offset: 0xB0C7, size: 0x8, addend: 0x0, symName: __ZNSt3__110__list_impI5voxelNS_9allocatorIS1_EEE5beginB7v160006Ev, symObjAddr: 0x17DC, symBinAddr: 0x100002728, symSize: 0x30 }
  - { offsetInCU: 0xB0EC, offset: 0xB0EC, size: 0x8, addend: 0x0, symName: __ZNSt3__115__list_iteratorI5voxelPvEC1B7v160006EPNS_16__list_node_baseIS1_S2_EEPKv, symObjAddr: 0x180C, symBinAddr: 0x100002758, symSize: 0x3C }
  - { offsetInCU: 0xB133, offset: 0xB133, size: 0x8, addend: 0x0, symName: __ZNSt3__115__list_iteratorI5voxelPvEC2B7v160006EPNS_16__list_node_baseIS1_S2_EEPKv, symObjAddr: 0x1848, symBinAddr: 0x100002794, symSize: 0x24 }
  - { offsetInCU: 0xB17A, offset: 0xB17A, size: 0x8, addend: 0x0, symName: __ZNSt3__115__list_iteratorI5voxelPvEppB7v160006Ev, symObjAddr: 0x1924, symBinAddr: 0x100002870, symSize: 0x20 }
  - { offsetInCU: 0xB19F, offset: 0xB19F, size: 0x8, addend: 0x0, symName: __ZNSt3__115__list_iteratorI5voxelPvEmmB7v160006Ev, symObjAddr: 0x1944, symBinAddr: 0x100002890, symSize: 0x20 }
  - { offsetInCU: 0xB1C4, offset: 0xB1C4, size: 0x8, addend: 0x0, symName: __ZNSt3__14listI5voxelNS_9allocatorIS1_EEE5eraseENS_21__list_const_iteratorIS1_PvEES7_, symObjAddr: 0x1964, symBinAddr: 0x1000028B0, symSize: 0xE4 }
  - { offsetInCU: 0xB254, offset: 0xB254, size: 0x8, addend: 0x0, symName: __ZNSt3__121__list_const_iteratorI5voxelPvEC1B7v160006ERKNS_15__list_iteratorIS1_S2_EE, symObjAddr: 0x1A48, symBinAddr: 0x100002994, symSize: 0x34 }
  - { offsetInCU: 0xB28C, offset: 0xB28C, size: 0x8, addend: 0x0, symName: __ZNSt3__110__list_impI5voxelNS_9allocatorIS1_EEE14__unlink_nodesEPNS_16__list_node_baseIS1_PvEES8_, symObjAddr: 0x1AB0, symBinAddr: 0x1000029FC, symSize: 0x3C }
  - { offsetInCU: 0xB2C1, offset: 0xB2C1, size: 0x8, addend: 0x0, symName: __ZNSt3__121__list_const_iteratorI5voxelPvEppB7v160006Ev, symObjAddr: 0x1AEC, symBinAddr: 0x100002A38, symSize: 0x20 }
  - { offsetInCU: 0xB2E5, offset: 0xB2E5, size: 0x8, addend: 0x0, symName: __ZNSt3__116__list_node_baseI5voxelPvE9__as_nodeB7v160006Ev, symObjAddr: 0x1B0C, symBinAddr: 0x100002A58, symSize: 0x24 }
  - { offsetInCU: 0xB30A, offset: 0xB30A, size: 0x8, addend: 0x0, symName: __ZNSt3__116allocator_traitsINS_9allocatorINS_11__list_nodeI5voxelPvEEEEE7destroyB7v160006IS3_vvEEvRS6_PT_, symObjAddr: 0x1B30, symBinAddr: 0x100002A7C, symSize: 0x14 }
  - { offsetInCU: 0xB345, offset: 0xB345, size: 0x8, addend: 0x0, symName: __ZNSt3__121__list_const_iteratorI5voxelPvEC2B7v160006ERKNS_15__list_iteratorIS1_S2_EE, symObjAddr: 0x1B74, symBinAddr: 0x100002AC0, symSize: 0x24 }
  - { offsetInCU: 0xB37D, offset: 0xB37D, size: 0x8, addend: 0x0, symName: __ZN3MapD2Ev, symObjAddr: 0x1B98, symBinAddr: 0x100002AE4, symSize: 0x2C }
  - { offsetInCU: 0xB3A8, offset: 0xB3A8, size: 0x8, addend: 0x0, symName: __ZNSt3__14listI5voxelNS_9allocatorIS1_EEED1Ev, symObjAddr: 0x1BC4, symBinAddr: 0x100002B10, symSize: 0x2C }
  - { offsetInCU: 0xB3D4, offset: 0xB3D4, size: 0x8, addend: 0x0, symName: __ZNSt3__14listI5voxelNS_9allocatorIS1_EEED2Ev, symObjAddr: 0x1BF0, symBinAddr: 0x100002B3C, symSize: 0x2C }
  - { offsetInCU: 0xB400, offset: 0xB400, size: 0x8, addend: 0x0, symName: __ZNSt3__110__list_impI5voxelNS_9allocatorIS1_EEED2Ev, symObjAddr: 0x1C1C, symBinAddr: 0x100002B68, symSize: 0x3C }
  - { offsetInCU: 0xB42B, offset: 0xB42B, size: 0x8, addend: 0x0, symName: __ZNSt3__110__list_impI5voxelNS_9allocatorIS1_EEE5clearEv, symObjAddr: 0x1C58, symBinAddr: 0x100002BA4, symSize: 0xDC }
  - { offsetInCU: 0xB4A2, offset: 0xB4A2, size: 0x8, addend: 0x0, symName: __ZNKSt3__110__list_impI5voxelNS_9allocatorIS1_EEE5emptyB7v160006Ev, symObjAddr: 0x1D44, symBinAddr: 0x100002C90, symSize: 0x34 }
  - { offsetInCU: 0xB4C6, offset: 0xB4C6, size: 0x8, addend: 0x0, symName: __ZNKSt3__110__list_impI5voxelNS_9allocatorIS1_EEE4__szB7v160006Ev, symObjAddr: 0x1D88, symBinAddr: 0x100002CD4, symSize: 0x28 }
  - { offsetInCU: 0xB4EA, offset: 0xB4EA, size: 0x8, addend: 0x0, symName: __ZNKSt3__117__compressed_pairImNS_9allocatorINS_11__list_nodeI5voxelPvEEEEE5firstB7v160006Ev, symObjAddr: 0x1DB0, symBinAddr: 0x100002CFC, symSize: 0x24 }
  - { offsetInCU: 0xB50F, offset: 0xB50F, size: 0x8, addend: 0x0, symName: __ZNKSt3__122__compressed_pair_elemImLi0ELb0EE5__getB7v160006Ev, symObjAddr: 0x1DD4, symBinAddr: 0x100002D20, symSize: 0x14 }
  - { offsetInCU: 0xB534, offset: 0xB534, size: 0x8, addend: 0x0, symName: __ZNSt3__111char_traitsIcE6lengthEPKc, symObjAddr: 0x1FD4, symBinAddr: 0x100002F20, symSize: 0x34 }
  - { offsetInCU: 0xB575, offset: 0xB575, size: 0x8, addend: 0x0, symName: __ZNKSt3__113basic_ostreamIcNS_11char_traitsIcEEE6sentrycvbB7v160006Ev, symObjAddr: 0x2008, symBinAddr: 0x100002F54, symSize: 0x1C }
  - { offsetInCU: 0xB59A, offset: 0xB59A, size: 0x8, addend: 0x0, symName: __ZNSt3__119ostreambuf_iteratorIcNS_11char_traitsIcEEEC1B7v160006ERNS_13basic_ostreamIcS2_EE, symObjAddr: 0x2264, symBinAddr: 0x1000031B0, symSize: 0x34 }
  - { offsetInCU: 0xB5D1, offset: 0xB5D1, size: 0x8, addend: 0x0, symName: __ZNKSt3__18ios_base5flagsB7v160006Ev, symObjAddr: 0x2298, symBinAddr: 0x1000031E4, symSize: 0x18 }
  - { offsetInCU: 0xB5F8, offset: 0xB5F8, size: 0x8, addend: 0x0, symName: __ZNKSt3__19basic_iosIcNS_11char_traitsIcEEE4fillB7v160006Ev, symObjAddr: 0x22B0, symBinAddr: 0x1000031FC, symSize: 0x64 }
  - { offsetInCU: 0xB61F, offset: 0xB61F, size: 0x8, addend: 0x0, symName: __ZNKSt3__119ostreambuf_iteratorIcNS_11char_traitsIcEEE6failedB7v160006Ev, symObjAddr: 0x2314, symBinAddr: 0x100003260, symSize: 0x24 }
  - { offsetInCU: 0xB643, offset: 0xB643, size: 0x8, addend: 0x0, symName: __ZNSt3__19basic_iosIcNS_11char_traitsIcEEE8setstateB7v160006Ej, symObjAddr: 0x2338, symBinAddr: 0x100003284, symSize: 0x2C }
  - { offsetInCU: 0xB677, offset: 0xB677, size: 0x8, addend: 0x0, symName: __ZNKSt3__18ios_base5widthB7v160006Ev, symObjAddr: 0x2364, symBinAddr: 0x1000032B0, symSize: 0x18 }
  - { offsetInCU: 0xB69D, offset: 0xB69D, size: 0x8, addend: 0x0, symName: __ZNSt3__115basic_streambufIcNS_11char_traitsIcEEE5sputnB7v160006EPKcl, symObjAddr: 0x237C, symBinAddr: 0x1000032C8, symSize: 0x3C }
  - { offsetInCU: 0xB6DE, offset: 0xB6DE, size: 0x8, addend: 0x0, symName: __ZNSt3__112basic_stringIcNS_11char_traitsIcEENS_9allocatorIcEEEC1B7v160006Emc, symObjAddr: 0x23B8, symBinAddr: 0x100003304, symSize: 0x3C }
  - { offsetInCU: 0xB724, offset: 0xB724, size: 0x8, addend: 0x0, symName: __ZNKSt3__112basic_stringIcNS_11char_traitsIcEENS_9allocatorIcEEE4dataB7v160006Ev, symObjAddr: 0x23F4, symBinAddr: 0x100003340, symSize: 0x28 }
  - { offsetInCU: 0xB749, offset: 0xB749, size: 0x8, addend: 0x0, symName: __ZNSt3__18ios_base5widthB7v160006El, symObjAddr: 0x241C, symBinAddr: 0x100003368, symSize: 0x2C }
  - { offsetInCU: 0xB78E, offset: 0xB78E, size: 0x8, addend: 0x0, symName: __ZNSt3__112basic_stringIcNS_11char_traitsIcEENS_9allocatorIcEEEC2B7v160006Emc, symObjAddr: 0x2448, symBinAddr: 0x100003394, symSize: 0x54 }
  - { offsetInCU: 0xB7D5, offset: 0xB7D5, size: 0x8, addend: 0x0, symName: __ZNSt3__117__compressed_pairINS_12basic_stringIcNS_11char_traitsIcEENS_9allocatorIcEEE5__repES5_EC1B7v160006INS_18__default_init_tagESA_EEOT_OT0_, symObjAddr: 0x249C, symBinAddr: 0x1000033E8, symSize: 0x3C }
  - { offsetInCU: 0xB82C, offset: 0xB82C, size: 0x8, addend: 0x0, symName: __ZNSt3__117__compressed_pairINS_12basic_stringIcNS_11char_traitsIcEENS_9allocatorIcEEE5__repES5_EC2B7v160006INS_18__default_init_tagESA_EEOT_OT0_, symObjAddr: 0x24E8, symBinAddr: 0x100003434, symSize: 0x3C }
  - { offsetInCU: 0xB883, offset: 0xB883, size: 0x8, addend: 0x0, symName: __ZNSt3__122__compressed_pair_elemINS_12basic_stringIcNS_11char_traitsIcEENS_9allocatorIcEEE5__repELi0ELb0EEC2B7v160006ENS_18__default_init_tagE, symObjAddr: 0x2524, symBinAddr: 0x100003470, symSize: 0x14 }
  - { offsetInCU: 0xB8B6, offset: 0xB8B6, size: 0x8, addend: 0x0, symName: __ZNSt3__122__compressed_pair_elemINS_9allocatorIcEELi1ELb1EEC2B7v160006ENS_18__default_init_tagE, symObjAddr: 0x2538, symBinAddr: 0x100003484, symSize: 0x2C }
  - { offsetInCU: 0xB8E9, offset: 0xB8E9, size: 0x8, addend: 0x0, symName: __ZNSt3__19allocatorIcEC2B7v160006Ev, symObjAddr: 0x2564, symBinAddr: 0x1000034B0, symSize: 0x2C }
  - { offsetInCU: 0xB912, offset: 0xB912, size: 0x8, addend: 0x0, symName: __ZNSt3__116__non_trivial_ifILb1ENS_9allocatorIcEEEC2B7v160006Ev, symObjAddr: 0x2590, symBinAddr: 0x1000034DC, symSize: 0x14 }
  - { offsetInCU: 0xB93A, offset: 0xB93A, size: 0x8, addend: 0x0, symName: __ZNKSt3__112basic_stringIcNS_11char_traitsIcEENS_9allocatorIcEEE13__get_pointerB7v160006Ev, symObjAddr: 0x25B8, symBinAddr: 0x100003504, symSize: 0x54 }
  - { offsetInCU: 0xB95E, offset: 0xB95E, size: 0x8, addend: 0x0, symName: __ZNKSt3__112basic_stringIcNS_11char_traitsIcEENS_9allocatorIcEEE9__is_longB7v160006Ev, symObjAddr: 0x260C, symBinAddr: 0x100003558, symSize: 0x38 }
  - { offsetInCU: 0xB982, offset: 0xB982, size: 0x8, addend: 0x0, symName: __ZNKSt3__112basic_stringIcNS_11char_traitsIcEENS_9allocatorIcEEE18__get_long_pointerB7v160006Ev, symObjAddr: 0x2644, symBinAddr: 0x100003590, symSize: 0x28 }
  - { offsetInCU: 0xB9A6, offset: 0xB9A6, size: 0x8, addend: 0x0, symName: __ZNKSt3__112basic_stringIcNS_11char_traitsIcEENS_9allocatorIcEEE19__get_short_pointerB7v160006Ev, symObjAddr: 0x266C, symBinAddr: 0x1000035B8, symSize: 0x28 }
  - { offsetInCU: 0xB9CA, offset: 0xB9CA, size: 0x8, addend: 0x0, symName: __ZNKSt3__117__compressed_pairINS_12basic_stringIcNS_11char_traitsIcEENS_9allocatorIcEEE5__repES5_E5firstB7v160006Ev, symObjAddr: 0x2694, symBinAddr: 0x1000035E0, symSize: 0x24 }
  - { offsetInCU: 0xB9EF, offset: 0xB9EF, size: 0x8, addend: 0x0, symName: __ZNKSt3__122__compressed_pair_elemINS_12basic_stringIcNS_11char_traitsIcEENS_9allocatorIcEEE5__repELi0ELb0EE5__getB7v160006Ev, symObjAddr: 0x26B8, symBinAddr: 0x100003604, symSize: 0x14 }
  - { offsetInCU: 0xBA14, offset: 0xBA14, size: 0x8, addend: 0x0, symName: __ZNSt3__114pointer_traitsIPKcE10pointer_toB7v160006ERS1_, symObjAddr: 0x26CC, symBinAddr: 0x100003618, symSize: 0x14 }
  - { offsetInCU: 0xBA37, offset: 0xBA37, size: 0x8, addend: 0x0, symName: __ZNSt3__119ostreambuf_iteratorIcNS_11char_traitsIcEEEC2B7v160006ERNS_13basic_ostreamIcS2_EE, symObjAddr: 0x26E0, symBinAddr: 0x10000362C, symSize: 0x54 }
  - { offsetInCU: 0xBA6E, offset: 0xBA6E, size: 0x8, addend: 0x0, symName: __ZNKSt3__19basic_iosIcNS_11char_traitsIcEEE5rdbufB7v160006Ev, symObjAddr: 0x2734, symBinAddr: 0x100003680, symSize: 0x24 }
  - { offsetInCU: 0xBA95, offset: 0xBA95, size: 0x8, addend: 0x0, symName: __ZNKSt3__18ios_base5rdbufB7v160006Ev, symObjAddr: 0x2758, symBinAddr: 0x1000036A4, symSize: 0x18 }
  - { offsetInCU: 0xBABA, offset: 0xBABA, size: 0x8, addend: 0x0, symName: __ZNSt3__111char_traitsIcE11eq_int_typeEii, symObjAddr: 0x2770, symBinAddr: 0x1000036BC, symSize: 0x28 }
  - { offsetInCU: 0xBAEB, offset: 0xBAEB, size: 0x8, addend: 0x0, symName: __ZNSt3__111char_traitsIcE3eofEv, symObjAddr: 0x2798, symBinAddr: 0x1000036E4, symSize: 0x8 }
  - { offsetInCU: 0xBAFF, offset: 0xBAFF, size: 0x8, addend: 0x0, symName: __ZNKSt3__19basic_iosIcNS_11char_traitsIcEEE5widenB7v160006Ec, symObjAddr: 0x27A0, symBinAddr: 0x1000036EC, symSize: 0x84 }
  - { offsetInCU: 0xBB6B, offset: 0xBB6B, size: 0x8, addend: 0x0, symName: __ZNKSt3__15ctypeIcE5widenB7v160006Ec, symObjAddr: 0x2850, symBinAddr: 0x10000379C, symSize: 0x38 }
  - { offsetInCU: 0xBB9F, offset: 0xBB9F, size: 0x8, addend: 0x0, symName: __ZNSt3__18ios_base8setstateB7v160006Ej, symObjAddr: 0x2888, symBinAddr: 0x1000037D4, symSize: 0x34 }
  - { offsetInCU: 0xBBF3, offset: 0xBBF3, size: 0x8, addend: 0x0, symName: __ZNKSt3__16chrono10time_pointINS0_12steady_clockENS0_8durationIxNS_5ratioILl1ELl1000000000EEEEEE16time_since_epochB7v160006Ev, symObjAddr: 0x2950, symBinAddr: 0x10000389C, symSize: 0x20 }
  - { offsetInCU: 0xBC18, offset: 0xBC18, size: 0x8, addend: 0x0, symName: __ZNSt3__16chrono8durationIxNS_5ratioILl1ELl1000000000EEEEC1B7v160006IxEERKT_PNS_9enable_ifIXaasr14is_convertibleIS8_xEE5valueooL_ZNS_17integral_constantIbLb0EE5valueEEntsr23treat_as_floating_pointIS6_EE5valueEvE4typeE, symObjAddr: 0x2970, symBinAddr: 0x1000038BC, symSize: 0x3C }
  - { offsetInCU: 0xBC64, offset: 0xBC64, size: 0x8, addend: 0x0, symName: __ZNSt3__16chrono8durationIxNS_5ratioILl1ELl1000000000EEEEC2B7v160006IxEERKT_PNS_9enable_ifIXaasr14is_convertibleIS8_xEE5valueooL_ZNS_17integral_constantIbLb0EE5valueEEntsr23treat_as_floating_pointIS6_EE5valueEvE4typeE, symObjAddr: 0x29AC, symBinAddr: 0x1000038F8, symSize: 0x28 }
...
